target datalayout = "e-m:e-p270:32:32-p271:32:32-p272:64:64-i64:64-i128:128-f80:128-n8:16:32:64-S128"
target triple = "x86_64-pc-linux-gnu"

%struct.H5FD_core_fapl_t = type { i64, i8, i8, i64 }
%struct.H5CX_node_t = type { %struct.H5CX_t, ptr }
%struct.H5CX_t = type { i64, ptr, i64, ptr, i64, ptr, i64, ptr, i64, ptr, i64, ptr, i64, i32, i64, i8, ptr, i8, ptr, i8, i32, i8, [3 x double], i8, i64, i8, i32, i8, %struct.H5Z_cb_t, i8, ptr, i8, %struct.H5T_vlen_alloc_info_t, i8, %struct.H5T_conv_cb_t, i8, i32, i8, i8, i8, i32, i8, i8, i32, i8, i8, i32, i8, i32, i8, i64, i8, i8, i8, i8, i8, ptr, i8, ptr, i8, i32, i8, i32, i8, %struct.H5VL_connector_prop_t, i8, ptr, i8 }
%struct.H5Z_cb_t = type { ptr, ptr }
%struct.H5T_vlen_alloc_info_t = type { ptr, ptr, ptr, ptr }
%struct.H5T_conv_cb_t = type { ptr, ptr }
%struct.H5VL_connector_prop_t = type { ptr, ptr }

@H5FD_CORE_id_g = global i64 -1, align 8
@H5FD_init_g = external global i8, align 1
@H5_libterm_g = external global i8, align 1
@.str.1 = private unnamed_addr constant [102 x i8] c"generated/home/dtcxzyw/WorkSpace/Projects/compilers/llvm-opt-benchmark/bench/hdf5/hdf5/src/H5FDcore.c\00", align 1
@H5_libinit_g = external global i8, align 1
@H5E_FUNC_g = external global i64, align 8
@H5E_CANTINIT_g = external global i64, align 8
@.str.3 = private unnamed_addr constant [30 x i8] c"library initialization failed\00", align 1
@.str.4 = private unnamed_addr constant [32 x i8] c"interface initialization failed\00", align 1
@H5E_CANTSET_g = external global i64, align 8
@.str.5 = private unnamed_addr constant [22 x i8] c"can't set API context\00", align 1
@H5E_ARGS_g = external global i64, align 8
@H5E_BADVALUE_g = external global i64, align 8
@H5P_CLS_FILE_ACCESS_ID_g = external global i64, align 8
@H5E_PLIST_g = external global i64, align 8
@.str.8 = private unnamed_addr constant [21 x i8] c"incorrect VFL driver\00", align 1
@.str.10 = private unnamed_addr constant [20 x i8] c"bad VFL driver info\00", align 1
@H5E_BADTYPE_g = external global i64, align 8
@.str.11 = private unnamed_addr constant [32 x i8] c"not a file access property list\00", align 1
@__func__.H5Pget_fapl_core = private unnamed_addr constant [17 x i8] c"H5Pget_fapl_core\00", align 1

; Function Attrs: nounwind uwtable
define i32 @H5Pget_fapl_core(i64 noundef %0, ptr noundef %1, ptr noundef %2) #0 {
  %4 = alloca i64, align 8
  %5 = alloca ptr, align 8
  %6 = alloca ptr, align 8
  %7 = alloca ptr, align 8
  %8 = alloca ptr, align 8
  %9 = alloca i32, align 4
  %10 = alloca %struct.H5CX_node_t, align 8
  %11 = alloca i8, align 1
  %12 = alloca i8, align 1
  store i64 %0, ptr %4, align 8, !tbaa !11
  store ptr %1, ptr %5, align 8, !tbaa !27
  store ptr %2, ptr %6, align 8, !tbaa !25
  call void @llvm.lifetime.start.p0(i64 8, ptr %7) #12
  call void @llvm.lifetime.start.p0(i64 8, ptr %8) #12
  call void @llvm.lifetime.start.p0(i64 4, ptr %9) #12
  store i32 0, ptr %9, align 4, !tbaa !3
  call void @llvm.lifetime.start.p0(i64 480, ptr %10) #12
  call void @llvm.memset.p0.i64(ptr align 8 %10, i8 0, i64 480, i1 false)
  call void @llvm.lifetime.start.p0(i64 1, ptr %11) #12
  store i8 0, ptr %11, align 1, !tbaa !7
  call void @llvm.lifetime.start.p0(i64 1, ptr %12) #12
  store i8 0, ptr %12, align 1, !tbaa !7
  br label %13

13:                                               ; preds = %3
  %14 = load i8, ptr @H5_libinit_g, align 1, !tbaa !7, !range !9, !noundef !10
  %15 = trunc i8 %14 to i1
  br i1 %15, label %20, label %16

16:                                               ; preds = %13
  %17 = load i8, ptr @H5_libterm_g, align 1, !tbaa !7, !range !9, !noundef !10
  %18 = trunc i8 %17 to i1
  %19 = xor i1 %18, true
  br label %20

20:                                               ; preds = %16, %13
  %21 = phi i1 [ false, %13 ], [ %19, %16 ]
  %22 = xor i1 %21, true
  %23 = xor i1 %22, true
  %24 = zext i1 %23 to i32
  %25 = sext i32 %24 to i64
  %26 = call i64 @llvm.expect.i64(i64 %25, i64 0)
  %27 = icmp ne i64 %26, 0
  br i1 %27, label %28, label %57

28:                                               ; preds = %20
  %29 = call i32 @H5_init_library()
  %30 = icmp slt i32 %29, 0
  %31 = xor i1 %30, true
  %32 = xor i1 %31, true
  %33 = zext i1 %32 to i32
  %34 = sext i32 %33 to i64
  %35 = call i64 @llvm.expect.i64(i64 %34, i64 0)
  %36 = icmp ne i64 %35, 0
  br i1 %36, label %37, label %56

37:                                               ; preds = %28
  br label %38

38:                                               ; preds = %37
  br label %39

39:                                               ; preds = %38
  br label %40

40:                                               ; preds = %39
  %41 = load i64, ptr @H5E_FUNC_g, align 8, !tbaa !11
  %42 = load i64, ptr @H5E_CANTINIT_g, align 8, !tbaa !11
  %43 = call i32 (ptr, ptr, i32, i64, i64, ptr, ...) @H5E_printf_stack(ptr noundef @.str.1, ptr noundef @__func__.H5Pget_fapl_core, i32 noundef 625, i64 noundef %41, i64 noundef %42, ptr noundef @.str.3)
  br label %44

44:                                               ; preds = %40
  br label %45

45:                                               ; preds = %44
  store i8 1, ptr %12, align 1, !tbaa !7
  %46 = load i8, ptr %12, align 1, !tbaa !7, !range !9, !noundef !10
  %47 = trunc i8 %46 to i1
  %48 = zext i1 %47 to i8
  store i8 %48, ptr %12, align 1, !tbaa !7
  br label %49

49:                                               ; preds = %45
  br label %50

50:                                               ; preds = %49
  br label %51

51:                                               ; preds = %50
  store i32 -1, ptr %9, align 4, !tbaa !3
  br label %220

52:                                               ; No predecessors!
  br label %53

53:                                               ; preds = %52
  br label %54

54:                                               ; preds = %53
  br label %55

55:                                               ; preds = %54
  br label %56

56:                                               ; preds = %55, %28
  br label %57

57:                                               ; preds = %56, %20
  %58 = load i8, ptr @H5FD_init_g, align 1, !tbaa !7, !range !9, !noundef !10
  %59 = trunc i8 %58 to i1
  br i1 %59, label %64, label %60

60:                                               ; preds = %57
  %61 = load i8, ptr @H5_libterm_g, align 1, !tbaa !7, !range !9, !noundef !10
  %62 = trunc i8 %61 to i1
  %63 = xor i1 %62, true
  br label %64

64:                                               ; preds = %60, %57
  %65 = phi i1 [ false, %57 ], [ %63, %60 ]
  %66 = xor i1 %65, true
  %67 = xor i1 %66, true
  %68 = zext i1 %67 to i32
  %69 = sext i32 %68 to i64
  %70 = call i64 @llvm.expect.i64(i64 %69, i64 0)
  %71 = icmp ne i64 %70, 0
  br i1 %71, label %72, label %95

72:                                               ; preds = %64
  store i8 1, ptr @H5FD_init_g, align 1, !tbaa !7
  %73 = call i32 @H5FD__init_package()
  %74 = icmp slt i32 %73, 0
  br i1 %74, label %75, label %94

75:                                               ; preds = %72
  store i8 0, ptr @H5FD_init_g, align 1, !tbaa !7
  br label %76

76:                                               ; preds = %75
  br label %77

77:                                               ; preds = %76
  br label %78

78:                                               ; preds = %77
  %79 = load i64, ptr @H5E_FUNC_g, align 8, !tbaa !11
  %80 = load i64, ptr @H5E_CANTINIT_g, align 8, !tbaa !11
  %81 = call i32 (ptr, ptr, i32, i64, i64, ptr, ...) @H5E_printf_stack(ptr noundef @.str.1, ptr noundef @__func__.H5Pget_fapl_core, i32 noundef 625, i64 noundef %79, i64 noundef %80, ptr noundef @.str.4)
  br label %82

82:                                               ; preds = %78
  br label %83

83:                                               ; preds = %82
  store i8 1, ptr %12, align 1, !tbaa !7
  %84 = load i8, ptr %12, align 1, !tbaa !7, !range !9, !noundef !10
  %85 = trunc i8 %84 to i1
  %86 = zext i1 %85 to i8
  store i8 %86, ptr %12, align 1, !tbaa !7
  br label %87

87:                                               ; preds = %83
  br label %88

88:                                               ; preds = %87
  br label %89

89:                                               ; preds = %88
  store i32 -1, ptr %9, align 4, !tbaa !3
  br label %220

90:                                               ; No predecessors!
  br label %91

91:                                               ; preds = %90
  br label %92

92:                                               ; preds = %91
  br label %93

93:                                               ; preds = %92
  br label %94

94:                                               ; preds = %93, %72
  br label %95

95:                                               ; preds = %94, %64
  br label %96

96:                                               ; preds = %95
  br label %97

97:                                               ; preds = %96
  br label %98

98:                                               ; preds = %97
  %99 = call i32 @H5CX_push(ptr noundef %10)
  %100 = icmp slt i32 %99, 0
  %101 = xor i1 %100, true
  %102 = xor i1 %101, true
  %103 = zext i1 %102 to i32
  %104 = sext i32 %103 to i64
  %105 = call i64 @llvm.expect.i64(i64 %104, i64 0)
  %106 = icmp ne i64 %105, 0
  br i1 %106, label %107, label %126

107:                                              ; preds = %98
  br label %108

108:                                              ; preds = %107
  br label %109

109:                                              ; preds = %108
  br label %110

110:                                              ; preds = %109
  %111 = load i64, ptr @H5E_FUNC_g, align 8, !tbaa !11
  %112 = load i64, ptr @H5E_CANTSET_g, align 8, !tbaa !11
  %113 = call i32 (ptr, ptr, i32, i64, i64, ptr, ...) @H5E_printf_stack(ptr noundef @.str.1, ptr noundef @__func__.H5Pget_fapl_core, i32 noundef 625, i64 noundef %111, i64 noundef %112, ptr noundef @.str.5)
  br label %114

114:                                              ; preds = %110
  br label %115

115:                                              ; preds = %114
  store i8 1, ptr %12, align 1, !tbaa !7
  %116 = load i8, ptr %12, align 1, !tbaa !7, !range !9, !noundef !10
  %117 = trunc i8 %116 to i1
  %118 = zext i1 %117 to i8
  store i8 %118, ptr %12, align 1, !tbaa !7
  br label %119

119:                                              ; preds = %115
  br label %120

120:                                              ; preds = %119
  br label %121

121:                                              ; preds = %120
  store i32 -1, ptr %9, align 4, !tbaa !3
  br label %220

122:                                              ; No predecessors!
  br label %123

123:                                              ; preds = %122
  br label %124

124:                                              ; preds = %123
  br label %125

125:                                              ; preds = %124
  br label %127

126:                                              ; preds = %98
  store i8 1, ptr %11, align 1, !tbaa !7
  br label %127

127:                                              ; preds = %126, %125
  br label %128

128:                                              ; preds = %127
  br label %129

129:                                              ; preds = %128
  %130 = call i32 @H5E_clear_stack()
  %131 = load i64, ptr %4, align 8, !tbaa !11
  %132 = load i64, ptr @H5P_CLS_FILE_ACCESS_ID_g, align 8, !tbaa !11
  %133 = call ptr @H5P_object_verify(i64 noundef %131, i64 noundef %132, i1 noundef zeroext true)
  store ptr %133, ptr %7, align 8, !tbaa !13
  %134 = icmp eq ptr null, %133
  br i1 %134, label %135, label %154

135:                                              ; preds = %129
  br label %136

136:                                              ; preds = %135
  br label %137

137:                                              ; preds = %136
  br label %138

138:                                              ; preds = %137
  %139 = load i64, ptr @H5E_ARGS_g, align 8, !tbaa !11
  %140 = load i64, ptr @H5E_BADTYPE_g, align 8, !tbaa !11
  %141 = call i32 (ptr, ptr, i32, i64, i64, ptr, ...) @H5E_printf_stack(ptr noundef @.str.1, ptr noundef @__func__.H5Pget_fapl_core, i32 noundef 628, i64 noundef %139, i64 noundef %140, ptr noundef @.str.11)
  br label %142

142:                                              ; preds = %138
  br label %143

143:                                              ; preds = %142
  store i8 1, ptr %12, align 1, !tbaa !7
  %144 = load i8, ptr %12, align 1, !tbaa !7, !range !9, !noundef !10
  %145 = trunc i8 %144 to i1
  %146 = zext i1 %145 to i8
  store i8 %146, ptr %12, align 1, !tbaa !7
  br label %147

147:                                              ; preds = %143
  br label %148

148:                                              ; preds = %147
  br label %149

149:                                              ; preds = %148
  store i32 -1, ptr %9, align 4, !tbaa !3
  br label %220

150:                                              ; No predecessors!
  br label %151

151:                                              ; preds = %150
  br label %152

152:                                              ; preds = %151
  br label %153

153:                                              ; preds = %152
  br label %154

154:                                              ; preds = %153, %129
  %155 = load i64, ptr @H5FD_CORE_id_g, align 8, !tbaa !11
  %156 = load ptr, ptr %7, align 8, !tbaa !13
  %157 = call i64 @H5P_peek_driver(ptr noundef %156)
  %158 = icmp ne i64 %155, %157
  br i1 %158, label %159, label %178

159:                                              ; preds = %154
  br label %160

160:                                              ; preds = %159
  br label %161

161:                                              ; preds = %160
  br label %162

162:                                              ; preds = %161
  %163 = load i64, ptr @H5E_PLIST_g, align 8, !tbaa !11
  %164 = load i64, ptr @H5E_BADVALUE_g, align 8, !tbaa !11
  %165 = call i32 (ptr, ptr, i32, i64, i64, ptr, ...) @H5E_printf_stack(ptr noundef @.str.1, ptr noundef @__func__.H5Pget_fapl_core, i32 noundef 630, i64 noundef %163, i64 noundef %164, ptr noundef @.str.8)
  br label %166

166:                                              ; preds = %162
  br label %167

167:                                              ; preds = %166
  store i8 1, ptr %12, align 1, !tbaa !7
  %168 = load i8, ptr %12, align 1, !tbaa !7, !range !9, !noundef !10
  %169 = trunc i8 %168 to i1
  %170 = zext i1 %169 to i8
  store i8 %170, ptr %12, align 1, !tbaa !7
  br label %171

171:                                              ; preds = %167
  br label %172

172:                                              ; preds = %171
  br label %173

173:                                              ; preds = %172
  store i32 -1, ptr %9, align 4, !tbaa !3
  br label %220

174:                                              ; No predecessors!
  br label %175

175:                                              ; preds = %174
  br label %176

176:                                              ; preds = %175
  br label %177

177:                                              ; preds = %176
  br label %178

178:                                              ; preds = %177, %154
  %179 = load ptr, ptr %7, align 8, !tbaa !13
  %180 = call ptr @H5P_peek_driver_info(ptr noundef %179)
  store ptr %180, ptr %8, align 8, !tbaa !16
  %181 = icmp eq ptr null, %180
  br i1 %181, label %182, label %201

182:                                              ; preds = %178
  br label %183

183:                                              ; preds = %182
  br label %184

184:                                              ; preds = %183
  br label %185

185:                                              ; preds = %184
  %186 = load i64, ptr @H5E_PLIST_g, align 8, !tbaa !11
  %187 = load i64, ptr @H5E_BADVALUE_g, align 8, !tbaa !11
  %188 = call i32 (ptr, ptr, i32, i64, i64, ptr, ...) @H5E_printf_stack(ptr noundef @.str.1, ptr noundef @__func__.H5Pget_fapl_core, i32 noundef 632, i64 noundef %186, i64 noundef %187, ptr noundef @.str.10)
  br label %189

189:                                              ; preds = %185
  br label %190

190:                                              ; preds = %189
  store i8 1, ptr %12, align 1, !tbaa !7
  %191 = load i8, ptr %12, align 1, !tbaa !7, !range !9, !noundef !10
  %192 = trunc i8 %191 to i1
  %193 = zext i1 %192 to i8
  store i8 %193, ptr %12, align 1, !tbaa !7
  br label %194

194:                                              ; preds = %190
  br label %195

195:                                              ; preds = %194
  br label %196

196:                                              ; preds = %195
  store i32 -1, ptr %9, align 4, !tbaa !3
  br label %220

197:                                              ; No predecessors!
  br label %198

198:                                              ; preds = %197
  br label %199

199:                                              ; preds = %198
  br label %200

200:                                              ; preds = %199
  br label %201

201:                                              ; preds = %200, %178
  %202 = load ptr, ptr %5, align 8, !tbaa !27
  %203 = icmp ne ptr %202, null
  br i1 %203, label %204, label %209

204:                                              ; preds = %201
  %205 = load ptr, ptr %8, align 8, !tbaa !16
  %206 = getelementptr inbounds nuw %struct.H5FD_core_fapl_t, ptr %205, i32 0, i32 0
  %207 = load i64, ptr %206, align 8, !tbaa !18
  %208 = load ptr, ptr %5, align 8, !tbaa !27
  store i64 %207, ptr %208, align 8, !tbaa !11
  br label %209

209:                                              ; preds = %204, %201
  %210 = load ptr, ptr %6, align 8, !tbaa !25
  %211 = icmp ne ptr %210, null
  br i1 %211, label %212, label %219

212:                                              ; preds = %209
  %213 = load ptr, ptr %8, align 8, !tbaa !16
  %214 = getelementptr inbounds nuw %struct.H5FD_core_fapl_t, ptr %213, i32 0, i32 1
  %215 = load i8, ptr %214, align 8, !tbaa !20, !range !9, !noundef !10
  %216 = trunc i8 %215 to i1
  %217 = load ptr, ptr %6, align 8, !tbaa !25
  %218 = zext i1 %216 to i8
  store i8 %218, ptr %217, align 1, !tbaa !7
  br label %219

219:                                              ; preds = %212, %209
  br label %220

220:                                              ; preds = %219, %196, %173, %149, %121, %89, %51
  %221 = load i8, ptr %11, align 1, !tbaa !7, !range !9, !noundef !10
  %222 = trunc i8 %221 to i1
  %223 = xor i1 %222, true
  %224 = xor i1 %223, true
  %225 = zext i1 %224 to i32
  %226 = sext i32 %225 to i64
  %227 = call i64 @llvm.expect.i64(i64 %226, i64 1)
  %228 = icmp ne i64 %227, 0
  br i1 %228, label %229, label %231

229:                                              ; preds = %220
  %230 = call i32 @H5CX_pop(i1 noundef zeroext true)
  store i8 0, ptr %11, align 1, !tbaa !7
  br label %231

231:                                              ; preds = %229, %220
  %232 = load i8, ptr %12, align 1, !tbaa !7, !range !9, !noundef !10
  %233 = trunc i8 %232 to i1
  %234 = xor i1 %233, true
  %235 = xor i1 %234, true
  %236 = zext i1 %235 to i32
  %237 = sext i32 %236 to i64
  %238 = call i64 @llvm.expect.i64(i64 %237, i64 0)
  %239 = icmp ne i64 %238, 0
  br i1 %239, label %240, label %242

240:                                              ; preds = %231
  %241 = call i32 @H5E_dump_api_stack()
  br label %242

242:                                              ; preds = %240, %231
  %243 = load i32, ptr %9, align 4, !tbaa !3
  call void @llvm.lifetime.end.p0(i64 1, ptr %12) #12
  call void @llvm.lifetime.end.p0(i64 1, ptr %11) #12
  call void @llvm.lifetime.end.p0(i64 480, ptr %10) #12
  call void @llvm.lifetime.end.p0(i64 4, ptr %9) #12
  call void @llvm.lifetime.end.p0(i64 8, ptr %8) #12
  call void @llvm.lifetime.end.p0(i64 8, ptr %7) #12
  ret i32 %243
}